Certificate:
    Data:
        Version: 3 (0x2)
        Serial Number:
            4b:e9:1f:12:75:48:2f:27:8c:71:00:8d:c3:99:06:b3
        Signature Algorithm: sha256WithRSAEncryption
        Issuer: CN=dcaratti
        Validity
            Not Before: Jan 13 17:51:45 2022 GMT
            Not After : Apr 17 17:51:45 2024 GMT
        Subject: CN=1x-wpasupplicant.example.com
        Subject Public Key Info:
            Public Key Algorithm: rsaEncryption
                RSA Public-Key: (2048 bit)
                Modulus:
                    00:b9:e4:f1:c4:f2:19:a5:ac:30:62:fa:34:2e:b5:
                    a8:79:e5:91:83:06:f0:32:33:08:28:8e:73:a5:cf:
                    f1:bd:63:36:e0:19:7c:b5:53:d3:a5:b9:77:a6:12:
                    fb:73:c2:8c:22:36:01:dd:92:5d:c2:10:b7:39:e7:
                    45:0b:99:01:28:29:bd:1c:7a:4c:90:1a:0f:6f:9a:
                    f4:7a:c1:24:95:38:9b:f2:7a:27:ac:80:5c:86:cd:
                    2a:ae:dd:a3:c9:96:96:ff:2a:6c:9d:bc:8d:bd:da:
                    34:7d:29:5e:6d:59:46:88:5e:83:e0:41:bf:85:e3:
                    05:fe:7c:21:a9:86:ca:51:59:9c:9b:ce:e5:e7:02:
                    3f:79:69:86:83:79:d6:5e:ee:cd:5f:28:be:69:e7:
                    67:ed:c6:8f:97:6e:f6:be:95:6f:da:48:d9:dd:0f:
                    f0:38:15:cf:9d:fe:1a:b2:c9:75:46:86:d5:f8:ac:
                    cf:99:5f:44:4c:42:0e:28:a5:78:81:03:7d:5e:79:
                    db:48:9b:d1:dc:df:af:a6:1a:49:18:c6:66:1b:c0:
                    c7:c7:dd:9b:76:17:03:03:bb:d1:a5:e3:d2:cb:d1:
                    f4:84:9d:98:49:62:45:fa:08:71:e4:48:00:11:d8:
                    16:06:28:b9:0c:5c:a1:37:b3:e8:78:b9:f9:a9:0d:
                    84:87
                Exponent: 65537 (0x10001)
        X509v3 extensions:
            X509v3 Basic Constraints: 
                CA:FALSE
            X509v3 Subject Key Identifier: 
                0F:96:4C:9A:E7:16:DE:D2:65:F8:FE:53:16:FB:C9:5B:0B:EA:8C:D1
            X509v3 Authority Key Identifier: 
                keyid:55:68:89:9A:CC:FF:CD:E8:28:98:AC:EC:BB:7E:D3:1F:A6:AE:B3:DE
                DirName:/CN=dcaratti
                serial:48:BE:EF:BC:25:0A:BF:CA:69:3C:DF:59:E3:77:1C:50:AC:60:5B:F2

            X509v3 Extended Key Usage: 
                TLS Web Client Authentication
            X509v3 Key Usage: 
                Digital Signature
    Signature Algorithm: sha256WithRSAEncryption
         40:31:18:2a:f0:c6:f3:ec:33:2b:4e:6b:ee:ea:e7:a5:0d:f5:
         94:62:47:74:5d:99:40:7b:4d:79:02:31:09:11:3d:48:4a:1a:
         91:1c:83:c6:01:24:da:b0:91:63:5a:08:7c:6e:a6:f3:a3:ad:
         6c:14:1f:57:8e:71:3e:69:86:7c:c4:cc:6d:ab:27:cc:58:e1:
         4c:d2:86:8e:66:d1:fe:f5:60:1b:c0:4e:4c:76:3a:4e:9c:c6:
         ff:05:b9:6a:7c:ee:4e:10:b8:32:90:85:0d:3e:af:a9:1a:f2:
         5c:75:b1:81:16:a7:19:0a:c8:7e:b7:d1:69:d3:ff:cc:92:0f:
         4b:92:cb:15:02:ac:1c:22:9d:f8:14:ba:3e:71:bf:1d:d0:9d:
         b0:4a:a6:97:f5:5c:17:9d:42:b2:03:e7:39:7f:b9:cb:b6:ea:
         6d:b8:cd:b0:f1:f3:05:bb:38:33:12:79:28:83:9d:52:81:2d:
         3c:49:26:00:c2:e4:cc:a0:3d:70:dd:bd:bc:b0:29:33:ca:54:
         9d:9a:94:7b:03:ca:d9:7d:00:ca:82:f0:d5:9d:49:9d:25:63:
         20:78:56:4d:d4:39:14:d5:ba:7e:53:17:62:16:8c:d5:11:41:
         84:7f:bf:17:e2:91:65:f0:4f:82:eb:5f:b9:dd:70:44:36:e5:
         00:30:73:07
-----BEGIN CERTIFICATE-----
MIIDZDCCAkygAwIBAgIQS+kfEnVILyeMcQCNw5kGszANBgkqhkiG9w0BAQsFADAT
MREwDwYDVQQDDAhkY2FyYXR0aTAeFw0yMjAxMTMxNzUxNDVaFw0yNDA0MTcxNzUx
NDVaMCcxJTAjBgNVBAMMHDF4LXdwYXN1cHBsaWNhbnQuZXhhbXBsZS5jb20wggEi
MA0GCSqGSIb3DQEBAQUAA4IBDwAwggEKAoIBAQC55PHE8hmlrDBi+jQutah55ZGD
BvAyMwgojnOlz/G9YzbgGXy1U9OluXemEvtzwowiNgHdkl3CELc550ULmQEoKb0c
ekyQGg9vmvR6wSSVOJvyeiesgFyGzSqu3aPJlpb/KmydvI292jR9KV5tWUaIXoPg
Qb+F4wX+fCGphspRWZybzuXnAj95aYaDedZe7s1fKL5p52ftxo+Xbva+lW/aSNnd
D/A4Fc+d/hqyyXVGhtX4rM+ZX0RMQg4opXiBA31eedtIm9Hc36+mGkkYxmYbwMfH
3Zt2FwMDu9Gl49LL0fSEnZhJYkX6CHHkSAAR2BYGKLkMXKE3s+h4ufmpDYSHAgMB
AAGjgZ8wgZwwCQYDVR0TBAIwADAdBgNVHQ4EFgQUD5ZMmucW3tJl+P5TFvvJWwvq
jNEwTgYDVR0jBEcwRYAUVWiJmsz/zegomKzsu37TH6aus96hF6QVMBMxETAPBgNV
BAMMCGRjYXJhdHRpghRIvu+8JQq/ymk831njdxxQrGBb8jATBgNVHSUEDDAKBggr
BgEFBQcDAjALBgNVHQ8EBAMCB4AwDQYJKoZIhvcNAQELBQADggEBAEAxGCrwxvPs
MytOa+7q56UN9ZRiR3RdmUB7TXkCMQkRPUhKGpEcg8YBJNqwkWNaCHxupvOjrWwU
H1eOcT5phnzEzG2rJ8xY4UzSho5m0f71YBvATkx2Ok6cxv8FuWp87k4QuDKQhQ0+
r6ka8lx1sYEWpxkKyH630WnT/8ySD0uSyxUCrBwinfgUuj5xvx3QnbBKppf1XBed
QrID5zl/ucu26m24zbDx8wW7ODMSeSiDnVKBLTxJJgDC5MygPXDdvbywKTPKVJ2a
lHsDytl9AMqC8NWdSZ0lYyB4Vk3UORTVun5TF2IWjNURQYR/vxfikWXwT4LrX7nd
cEQ25QAwcwc=
-----END CERTIFICATE-----
