Certificate:
    Data:
        Version: 3 (0x2)
        Serial Number:
            8f:db:05:5a:bc:b6:04:fd:78:a1:16:94:e1:46:00:fe
        Signature Algorithm: sha256WithRSAEncryption
        Issuer: CN=dcaratti
        Validity
            Not Before: Jan 13 09:00:30 2022 GMT
            Not After : Apr 17 09:00:30 2024 GMT
        Subject: CN=1x-hostapd.example.com
        Subject Public Key Info:
            Public Key Algorithm: rsaEncryption
                RSA Public-Key: (2048 bit)
                Modulus:
                    00:af:83:69:79:3c:e5:43:4f:86:b6:6f:ef:58:f8:
                    2c:7d:b0:90:d7:87:78:1c:e1:76:26:4a:72:3a:df:
                    6d:fe:c0:5d:8b:5e:ce:14:13:17:ee:71:af:b7:2a:
                    02:02:1a:3c:a1:6a:cb:2c:0c:2d:dc:fb:3f:40:6f:
                    11:5a:3f:2b:c7:8b:64:39:b5:99:94:b0:f7:7e:e6:
                    4e:4e:11:72:6b:d0:10:9c:ac:4b:c9:ac:28:d4:d4:
                    2e:60:4a:bc:fe:33:d5:10:3c:4d:00:e8:c7:ed:48:
                    39:71:af:17:5a:e7:91:c8:df:d3:11:df:54:26:f6:
                    a1:ee:55:f8:66:db:e4:75:c7:86:22:fa:08:74:99:
                    3a:80:40:03:9d:f6:7f:e1:9f:59:f8:c4:2d:17:4c:
                    17:91:48:73:bd:e5:42:f6:19:a4:b5:0f:23:7e:16:
                    50:20:15:09:63:9f:16:12:5b:cf:8a:38:27:ec:a2:
                    5c:70:0c:bd:0d:43:37:89:23:c4:11:8d:81:4f:51:
                    c1:d6:2f:01:e7:4e:be:ec:77:09:45:a3:53:ee:2f:
                    38:75:7b:6c:28:ab:0f:ba:88:61:6b:14:ce:7c:70:
                    ee:a4:6f:84:48:f5:02:ec:5e:0d:61:17:0f:51:37:
                    f1:82:29:80:a9:1c:8c:a3:09:18:9e:43:c2:88:e5:
                    8a:c5
                Exponent: 65537 (0x10001)
        X509v3 extensions:
            X509v3 Basic Constraints: 
                CA:FALSE
            X509v3 Subject Key Identifier: 
                40:39:AB:00:3D:BF:DE:5A:5A:CA:03:35:52:83:6B:A3:0B:0B:F0:BC
            X509v3 Authority Key Identifier: 
                keyid:55:68:89:9A:CC:FF:CD:E8:28:98:AC:EC:BB:7E:D3:1F:A6:AE:B3:DE
                DirName:/CN=dcaratti
                serial:48:BE:EF:BC:25:0A:BF:CA:69:3C:DF:59:E3:77:1C:50:AC:60:5B:F2

            X509v3 Extended Key Usage: 
                TLS Web Server Authentication
            X509v3 Key Usage: 
                Digital Signature, Key Encipherment
            X509v3 Subject Alternative Name: 
                DNS:1x-hostapd.example.com
    Signature Algorithm: sha256WithRSAEncryption
         39:50:5b:a2:68:ce:b0:8d:79:36:dc:ea:e9:90:e2:83:41:b6:
         20:92:66:c4:0f:45:96:25:f2:ff:db:9d:08:84:ce:36:84:f3:
         6c:5e:71:27:e7:cd:9a:ab:6a:75:63:d3:72:f7:36:85:9a:df:
         62:0a:ee:7d:40:b9:0e:53:9e:b5:63:7e:7c:77:3b:01:9d:5b:
         74:f7:2c:03:a9:fd:e3:d1:3c:07:b0:1b:fc:87:71:b9:0d:68:
         90:e0:9c:9c:7a:95:f5:e3:21:2d:fa:a8:90:6d:d7:02:52:37:
         69:45:9e:4d:f1:fd:95:ae:d1:8f:92:37:23:c8:d6:bc:b5:b4:
         49:58:af:c0:32:4b:00:10:e5:91:87:4e:5a:ec:96:61:68:11:
         57:f0:fc:17:9c:90:8c:38:2a:9f:53:8c:a0:cb:b9:eb:5e:48:
         95:52:a6:0e:64:89:ef:be:1b:4e:86:46:37:9b:a5:9d:87:ab:
         1f:47:dc:5d:43:04:ea:cb:f2:5b:1f:15:96:b5:1d:22:dd:44:
         22:ff:62:de:36:2d:a6:8a:b0:d1:03:3d:cd:d3:57:f4:a2:90:
         60:d3:1a:55:3d:26:13:25:41:93:ed:57:33:bc:f5:71:7f:94:
         12:f7:03:4b:5c:44:e6:84:45:af:e4:b6:d5:87:30:9b:07:f4:
         fa:c6:77:06
-----BEGIN CERTIFICATE-----
MIIDgjCCAmqgAwIBAgIRAI/bBVq8tgT9eKEWlOFGAP4wDQYJKoZIhvcNAQELBQAw
EzERMA8GA1UEAwwIZGNhcmF0dGkwHhcNMjIwMTEzMDkwMDMwWhcNMjQwNDE3MDkw
MDMwWjAhMR8wHQYDVQQDDBYxeC1ob3N0YXBkLmV4YW1wbGUuY29tMIIBIjANBgkq
hkiG9w0BAQEFAAOCAQ8AMIIBCgKCAQEAr4NpeTzlQ0+Gtm/vWPgsfbCQ14d4HOF2
JkpyOt9t/sBdi17OFBMX7nGvtyoCAho8oWrLLAwt3Ps/QG8RWj8rx4tkObWZlLD3
fuZOThFya9AQnKxLyawo1NQuYEq8/jPVEDxNAOjH7Ug5ca8XWueRyN/TEd9UJvah
7lX4ZtvkdceGIvoIdJk6gEADnfZ/4Z9Z+MQtF0wXkUhzveVC9hmktQ8jfhZQIBUJ
Y58WElvPijgn7KJccAy9DUM3iSPEEY2BT1HB1i8B506+7HcJRaNT7i84dXtsKKsP
uohhaxTOfHDupG+ESPUC7F4NYRcPUTfxgimAqRyMowkYnkPCiOWKxQIDAQABo4HC
MIG/MAkGA1UdEwQCMAAwHQYDVR0OBBYEFEA5qwA9v95aWsoDNVKDa6MLC/C8ME4G
A1UdIwRHMEWAFFVoiZrM/83oKJis7Lt+0x+mrrPeoRekFTATMREwDwYDVQQDDAhk
Y2FyYXR0aYIUSL7vvCUKv8ppPN9Z43ccUKxgW/IwEwYDVR0lBAwwCgYIKwYBBQUH
AwEwCwYDVR0PBAQDAgWgMCEGA1UdEQQaMBiCFjF4LWhvc3RhcGQuZXhhbXBsZS5j
b20wDQYJKoZIhvcNAQELBQADggEBADlQW6JozrCNeTbc6umQ4oNBtiCSZsQPRZYl
8v/bnQiEzjaE82xecSfnzZqranVj03L3NoWa32IK7n1AuQ5TnrVjfnx3OwGdW3T3
LAOp/ePRPAewG/yHcbkNaJDgnJx6lfXjIS36qJBt1wJSN2lFnk3x/ZWu0Y+SNyPI
1ry1tElYr8AySwAQ5ZGHTlrslmFoEVfw/BeckIw4Kp9TjKDLueteSJVSpg5kie++
G06GRjebpZ2Hqx9H3F1DBOrL8lsfFZa1HSLdRCL/Yt42LaaKsNEDPc3TV/SikGDT
GlU9JhMlQZPtVzO89XF/lBL3A0tcROaERa/kttWHMJsH9PrGdwY=
-----END CERTIFICATE-----
